; Function Attrs: nounwind uwtable
define hidden void @Curl_auth_digest_cleanup(ptr noundef captures(none) initializes((48, 53)) %0) local_unnamed_addr #3 {
  %2 = load ptr, ptr @Curl_cfree, align 8, !tbaa !12
  %3 = load ptr, ptr %0, align 8, !tbaa !94
  tail call void %2(ptr noundef %3) #10
  store ptr null, ptr %0, align 8, !tbaa !94
  %4 = load ptr, ptr @Curl_cfree, align 8, !tbaa !12
  %5 = getelementptr inbounds nuw i8, ptr %0, i64 8
  %6 = load ptr, ptr %5, align 8, !tbaa !95
  tail call void %4(ptr noundef %6) #10
  store ptr null, ptr %5, align 8, !tbaa !95
  %7 = load ptr, ptr @Curl_cfree, align 8, !tbaa !12
  %8 = getelementptr inbounds nuw i8, ptr %0, i64 16
  %9 = load ptr, ptr %8, align 8, !tbaa !96
  tail call void %7(ptr noundef %9) #10
  store ptr null, ptr %8, align 8, !tbaa !96
  %10 = load ptr, ptr @Curl_cfree, align 8, !tbaa !12
  %11 = getelementptr inbounds nuw i8, ptr %0, i64 24
  %12 = load ptr, ptr %11, align 8, !tbaa !97
  tail call void %10(ptr noundef %12) #10
  store ptr null, ptr %11, align 8, !tbaa !97
  %13 = load ptr, ptr @Curl_cfree, align 8, !tbaa !12
  %14 = getelementptr inbounds nuw i8, ptr %0, i64 32
  %15 = load ptr, ptr %14, align 8, !tbaa !98
  tail call void %13(ptr noundef %15) #10
  store ptr null, ptr %14, align 8, !tbaa !98
  %16 = load ptr, ptr @Curl_cfree, align 8, !tbaa !12
  %17 = getelementptr inbounds nuw i8, ptr %0, i64 40
  %18 = load ptr, ptr %17, align 8, !tbaa !99
  tail call void %16(ptr noundef %18) #10
  store ptr null, ptr %17, align 8, !tbaa !99
  %19 = getelementptr inbounds nuw i8, ptr %0, i64 48
  store i32 0, ptr %19, align 8, !tbaa !100
  %20 = getelementptr inbounds nuw i8, ptr %0, i64 52
  store i8 0, ptr %20, align 4, !tbaa !101
  %21 = getelementptr inbounds nuw i8, ptr %0, i64 53
  %22 = load i8, ptr %21, align 1
  %23 = and i8 %22, -4
  store i8 %23, ptr %21, align 1
  ret void
}